; Function Attrs: mustprogress uwtable
define hidden void @_ZN2cv4gapi5fluid23BufferStorageWithBorder16updateBeforeReadEiiRKNS1_13BufferStorageE(ptr noundef nonnull align 8 dereferenceable(112) %0, i32 noundef %1, i32 noundef %2, ptr noundef nonnull align 8 dereferenceable(104) %3) unnamed_addr #4 align 2 {
  %5 = load ptr, ptr %3, align 8, !tbaa !13
  %6 = load ptr, ptr %5, align 8
  tail call void %6(ptr noundef nonnull align 8 dereferenceable(104) %3, ptr noundef nonnull align 8 dereferenceable(112) %0, i32 noundef %1, i32 noundef %2)
  %7 = getelementptr inbounds nuw i8, ptr %0, i64 104
  %8 = load ptr, ptr %7, align 8, !tbaa !65
  %9 = load ptr, ptr %8, align 8, !tbaa !13
  %10 = getelementptr inbounds nuw i8, ptr %9, i64 32
  %11 = load ptr, ptr %10, align 8
  tail call void %11(ptr noundef nonnull align 8 dereferenceable(12) %8, ptr noundef nonnull align 8 dereferenceable(112) %0, i32 noundef %1, i32 noundef %2)
  ret void
}